; Function Attrs: nounwind uwtable
define internal noundef i32 @vorbis_parse(ptr noundef captures(none) %0, ptr noundef readonly captures(none) %1, ptr noundef writeonly captures(none) initializes((0, 8)) %2, ptr noundef writeonly captures(none) initializes((0, 4)) %3, ptr noundef %4, i32 noundef returned %5) #0 {
  %7 = load ptr, ptr %0, align 8, !tbaa !28
  %8 = load ptr, ptr %7, align 8, !tbaa !32
  %.not = icmp eq ptr %8, null
  br i1 %.not, label %9, label %.thread

9:                                                ; preds = %6
  %10 = getelementptr inbounds nuw i8, ptr %1, i64 72
  %11 = load ptr, ptr %10, align 8, !tbaa !34
  %.not20 = icmp eq ptr %11, null
  br i1 %.not20, label %av_vorbis_parse_frame.exit.thread, label %12

12:                                               ; preds = %9
  %13 = getelementptr inbounds nuw i8, ptr %1, i64 80
  %14 = load i32, ptr %13, align 8, !tbaa !50
  %.not21 = icmp eq i32 %14, 0
  br i1 %.not21, label %av_vorbis_parse_frame.exit.thread, label %thread-pre-split

thread-pre-split:                                 ; preds = %12
  %15 = tail call ptr @av_vorbis_parse_init(ptr noundef nonnull %11, i32 noundef %14)
  store ptr %15, ptr %7, align 8, !tbaa !32
  %.not22 = icmp eq ptr %15, null
  br i1 %.not22, label %av_vorbis_parse_frame.exit.thread, label %.thread

.thread:                                          ; preds = %6, %thread-pre-split
  %16 = phi ptr [ %15, %thread-pre-split ], [ %8, %6 ]
  %17 = getelementptr inbounds nuw i8, ptr %16, i64 12
  %18 = load i32, ptr %17, align 4, !tbaa !4
  %19 = icmp ne i32 %18, 0
  %20 = icmp sgt i32 %5, 0
  %or.cond.i.i = and i1 %20, %19
  br i1 %or.cond.i.i, label %21, label %av_vorbis_parse_frame.exit.thread25

21:                                               ; preds = %.thread
  %22 = getelementptr inbounds nuw i8, ptr %16, i64 24
  %23 = load i32, ptr %22, align 8, !tbaa !11
  %24 = load i8, ptr %4, align 1, !tbaa !12
  %25 = zext i8 %24 to i32
  %26 = and i32 %25, 1
  %.not.i.i = icmp eq i32 %26, 0
  br i1 %.not.i.i, label %28, label %27

27:                                               ; preds = %21
  tail call void (ptr, i32, ptr, ...) @av_log(ptr noundef nonnull %16, i32 noundef 16, ptr noundef nonnull @.str.1) #6
  br label %av_vorbis_parse_frame.exit.thread

28:                                               ; preds = %21
  %29 = getelementptr inbounds nuw i8, ptr %16, i64 284
  %30 = load i32, ptr %29, align 4, !tbaa !14
  %31 = icmp eq i32 %30, 1
  br i1 %31, label %37, label %32

32:                                               ; preds = %28
  %33 = getelementptr inbounds nuw i8, ptr %16, i64 288
  %34 = load i32, ptr %33, align 8, !tbaa !15
  %35 = and i32 %34, %25
  %36 = lshr exact i32 %35, 1
  br label %37

37:                                               ; preds = %32, %28
  %.040.i.i = phi i32 [ %36, %32 ], [ 0, %28 ]
  %.not43.i.i = icmp slt i32 %.040.i.i, %30
  br i1 %.not43.i.i, label %39, label %38

38:                                               ; preds = %37
  tail call void (ptr, i32, ptr, ...) @av_log(ptr noundef nonnull %16, i32 noundef 16, ptr noundef nonnull @.str.2) #6
  br label %av_vorbis_parse_frame.exit.thread

39:                                               ; preds = %37
  %40 = getelementptr inbounds nuw i8, ptr %16, i64 28
  %41 = zext nneg i32 %.040.i.i to i64
  %42 = getelementptr inbounds nuw [64 x i32], ptr %40, i64 0, i64 %41
  %43 = load i32, ptr %42, align 4, !tbaa !13
  %.not44.i.i = icmp eq i32 %43, 0
  br i1 %.not44.i.i, label %av_vorbis_parse_frame.exit, label %44

44:                                               ; preds = %39
  %45 = getelementptr inbounds nuw i8, ptr %16, i64 292
  %46 = load i32, ptr %45, align 4, !tbaa !16
  %47 = and i32 %46, %25
  %48 = icmp ne i32 %47, 0
  %49 = getelementptr inbounds nuw i8, ptr %16, i64 16
  %50 = zext i1 %48 to i64
  %51 = getelementptr inbounds nuw [2 x i32], ptr %49, i64 0, i64 %50
  %52 = load i32, ptr %51, align 4, !tbaa !13
  br label %av_vorbis_parse_frame.exit

av_vorbis_parse_frame.exit:                       ; preds = %39, %44
  %.037.i.i = phi i32 [ %52, %44 ], [ %23, %39 ]
  %53 = getelementptr inbounds nuw i8, ptr %16, i64 16
  %54 = sext i32 %43 to i64
  %55 = getelementptr inbounds [2 x i32], ptr %53, i64 0, i64 %54
  %56 = load i32, ptr %55, align 4, !tbaa !13
  %57 = add nsw i32 %56, %.037.i.i
  %58 = ashr i32 %57, 2
  store i32 %56, ptr %22, align 8, !tbaa !11
  %59 = icmp sgt i32 %58, -1
  br i1 %59, label %av_vorbis_parse_frame.exit.thread25, label %av_vorbis_parse_frame.exit.thread

av_vorbis_parse_frame.exit.thread25:              ; preds = %.thread, %av_vorbis_parse_frame.exit
  %.1.i.i27 = phi i32 [ %58, %av_vorbis_parse_frame.exit ], [ 0, %.thread ]
  %60 = getelementptr inbounds nuw i8, ptr %0, i64 296
  store i32 %.1.i.i27, ptr %60, align 8, !tbaa !51
  br label %av_vorbis_parse_frame.exit.thread

av_vorbis_parse_frame.exit.thread:                ; preds = %12, %9, %27, %38, %av_vorbis_parse_frame.exit, %av_vorbis_parse_frame.exit.thread25, %thread-pre-split
  store ptr %4, ptr %2, align 8, !tbaa !21
  store i32 %5, ptr %3, align 4, !tbaa !13
  ret i32 %5
}